target datalayout = "e-m:e-p270:32:32-p271:32:32-p272:64:64-i64:64-i128:128-f80:128-n8:16:32:64-S128"
target triple = "x86_64-pc-linux-gnu"

%struct.H5ES_event_t = type { ptr, ptr, ptr, %struct.H5ES_op_info_t }
%struct.H5ES_op_info_t = type { ptr, ptr, ptr, ptr, i32, i64, i64, i64, i64 }
%struct.H5ES_cancel_ctx_t = type { ptr, ptr, ptr }

@H5ES_init_g = global i8 0, align 1
@H5_libterm_g = external global i8, align 1
@.str = private unnamed_addr constant [101 x i8] c"generated/home/dtcxzyw/WorkSpace/Projects/compilers/llvm-opt-benchmark/bench/hdf5/hdf5/src/H5ESint.c\00", align 1
@H5E_EVENTSET_g = external global i64, align 8
@H5E_CANTRELEASE_g = external global i64, align 8
@H5E_CANTSET_g = external global i64, align 8
@.str.22 = private unnamed_addr constant [34 x i8] c"unable to release completed event\00", align 1
@.str.27 = private unnamed_addr constant [30 x i8] c"unable to handle failed event\00", align 1
@__func__.H5ES__cancel_cb = private unnamed_addr constant [16 x i8] c"H5ES__cancel_cb\00", align 1
@H5E_CANTCANCEL_g = external global i64, align 8
@.str.30 = private unnamed_addr constant [27 x i8] c"unable to cancel operation\00", align 1

; Function Attrs: nounwind uwtable
define internal i32 @H5ES__cancel_cb(ptr noundef %0, ptr noundef %1) #0 {
  %3 = alloca ptr, align 8
  %4 = alloca ptr, align 8
  %5 = alloca ptr, align 8
  %6 = alloca i32, align 4
  %7 = alloca i32, align 4
  %8 = alloca i8, align 1
  store ptr %0, ptr %3, align 8, !tbaa !27
  store ptr %1, ptr %4, align 8, !tbaa !18
  call void @llvm.lifetime.start.p0(i64 8, ptr %5) #5
  %9 = load ptr, ptr %4, align 8, !tbaa !18
  store ptr %9, ptr %5, align 8, !tbaa !66
  call void @llvm.lifetime.start.p0(i64 4, ptr %6) #5
  store i32 1, ptr %6, align 4, !tbaa !3
  call void @llvm.lifetime.start.p0(i64 4, ptr %7) #5
  store i32 0, ptr %7, align 4, !tbaa !3
  call void @llvm.lifetime.start.p0(i64 1, ptr %8) #5
  store i8 0, ptr %8, align 1, !tbaa !7
  %10 = load i8, ptr @H5ES_init_g, align 1, !tbaa !7, !range !9, !noundef !10
  %11 = trunc i8 %10 to i1
  br i1 %11, label %16, label %12

12:                                               ; preds = %2
  %13 = load i8, ptr @H5_libterm_g, align 1, !tbaa !7, !range !9, !noundef !10
  %14 = trunc i8 %13 to i1
  %15 = xor i1 %14, true
  br label %16

16:                                               ; preds = %12, %2
  %17 = phi i1 [ true, %2 ], [ %15, %12 ]
  %18 = xor i1 %17, true
  %19 = xor i1 %18, true
  %20 = zext i1 %19 to i32
  %21 = sext i32 %20 to i64
  %22 = call i64 @llvm.expect.i64(i64 %21, i64 1)
  %23 = icmp ne i64 %22, 0
  br i1 %23, label %24, label %163

24:                                               ; preds = %16
  %25 = load ptr, ptr %3, align 8, !tbaa !27
  %26 = getelementptr inbounds nuw %struct.H5ES_event_t, ptr %25, i32 0, i32 0
  %27 = load ptr, ptr %26, align 8, !tbaa !52
  %28 = call i32 @H5VL_request_cancel(ptr noundef %27, ptr noundef %6)
  %29 = icmp slt i32 %28, 0
  br i1 %29, label %30, label %49

30:                                               ; preds = %24
  br label %31

31:                                               ; preds = %30
  br label %32

32:                                               ; preds = %31
  br label %33

33:                                               ; preds = %32
  %34 = load i64, ptr @H5E_EVENTSET_g, align 8, !tbaa !11
  %35 = load i64, ptr @H5E_CANTCANCEL_g, align 8, !tbaa !11
  %36 = call i32 (ptr, ptr, i32, i64, i64, ptr, ...) @H5E_printf_stack(ptr noundef @.str, ptr noundef @__func__.H5ES__cancel_cb, i32 noundef 785, i64 noundef %34, i64 noundef %35, ptr noundef @.str.30)
  br label %37

37:                                               ; preds = %33
  br label %38

38:                                               ; preds = %37
  store i8 1, ptr %8, align 1, !tbaa !7
  %39 = load i8, ptr %8, align 1, !tbaa !7, !range !9, !noundef !10
  %40 = trunc i8 %39 to i1
  %41 = zext i1 %40 to i8
  store i8 %41, ptr %8, align 1, !tbaa !7
  br label %42

42:                                               ; preds = %38
  br label %43

43:                                               ; preds = %42
  br label %44

44:                                               ; preds = %43
  store i32 -1, ptr %7, align 4, !tbaa !3
  br label %162

45:                                               ; No predecessors!
  br label %46

46:                                               ; preds = %45
  br label %47

47:                                               ; preds = %46
  br label %48

48:                                               ; preds = %47
  br label %49

49:                                               ; preds = %48, %24
  %50 = load i32, ptr %6, align 4, !tbaa !3
  %51 = icmp eq i32 %50, 2
  br i1 %51, label %52, label %83

52:                                               ; preds = %49
  %53 = load ptr, ptr %5, align 8, !tbaa !66
  %54 = getelementptr inbounds nuw %struct.H5ES_cancel_ctx_t, ptr %53, i32 0, i32 0
  %55 = load ptr, ptr %54, align 8, !tbaa !62
  %56 = load ptr, ptr %3, align 8, !tbaa !27
  %57 = load i32, ptr %6, align 4, !tbaa !3
  %58 = call i32 @H5ES__op_complete(ptr noundef %55, ptr noundef %56, i32 noundef %57)
  %59 = icmp slt i32 %58, 0
  br i1 %59, label %60, label %79

60:                                               ; preds = %52
  br label %61

61:                                               ; preds = %60
  br label %62

62:                                               ; preds = %61
  br label %63

63:                                               ; preds = %62
  %64 = load i64, ptr @H5E_EVENTSET_g, align 8, !tbaa !11
  %65 = load i64, ptr @H5E_CANTSET_g, align 8, !tbaa !11
  %66 = call i32 (ptr, ptr, i32, i64, i64, ptr, ...) @H5E_printf_stack(ptr noundef @.str, ptr noundef @__func__.H5ES__cancel_cb, i32 noundef 791, i64 noundef %64, i64 noundef %65, ptr noundef @.str.27)
  br label %67

67:                                               ; preds = %63
  br label %68

68:                                               ; preds = %67
  store i8 1, ptr %8, align 1, !tbaa !7
  %69 = load i8, ptr %8, align 1, !tbaa !7, !range !9, !noundef !10
  %70 = trunc i8 %69 to i1
  %71 = zext i1 %70 to i8
  store i8 %71, ptr %8, align 1, !tbaa !7
  br label %72

72:                                               ; preds = %68
  br label %73

73:                                               ; preds = %72
  br label %74

74:                                               ; preds = %73
  store i32 -1, ptr %7, align 4, !tbaa !3
  br label %162

75:                                               ; No predecessors!
  br label %76

76:                                               ; preds = %75
  br label %77

77:                                               ; preds = %76
  br label %78

78:                                               ; preds = %77
  br label %79

79:                                               ; preds = %78, %52
  %80 = load ptr, ptr %5, align 8, !tbaa !66
  %81 = getelementptr inbounds nuw %struct.H5ES_cancel_ctx_t, ptr %80, i32 0, i32 2
  %82 = load ptr, ptr %81, align 8, !tbaa !65
  store i8 1, ptr %82, align 1, !tbaa !7
  store i32 1, ptr %7, align 4, !tbaa !3
  br label %161

83:                                               ; preds = %49
  %84 = load i32, ptr %6, align 4, !tbaa !3
  %85 = icmp eq i32 %84, 1
  br i1 %85, label %86, label %119

86:                                               ; preds = %83
  %87 = load ptr, ptr %5, align 8, !tbaa !66
  %88 = getelementptr inbounds nuw %struct.H5ES_cancel_ctx_t, ptr %87, i32 0, i32 1
  %89 = load ptr, ptr %88, align 8, !tbaa !64
  %90 = load i64, ptr %89, align 8, !tbaa !11
  %91 = add i64 %90, 1
  store i64 %91, ptr %89, align 8, !tbaa !11
  %92 = load ptr, ptr %5, align 8, !tbaa !66
  %93 = getelementptr inbounds nuw %struct.H5ES_cancel_ctx_t, ptr %92, i32 0, i32 0
  %94 = load ptr, ptr %93, align 8, !tbaa !62
  %95 = load ptr, ptr %3, align 8, !tbaa !27
  %96 = load i32, ptr %6, align 4, !tbaa !3
  %97 = call i32 @H5ES__op_complete(ptr noundef %94, ptr noundef %95, i32 noundef %96)
  %98 = icmp slt i32 %97, 0
  br i1 %98, label %99, label %118

99:                                               ; preds = %86
  br label %100

100:                                              ; preds = %99
  br label %101

101:                                              ; preds = %100
  br label %102

102:                                              ; preds = %101
  %103 = load i64, ptr @H5E_EVENTSET_g, align 8, !tbaa !11
  %104 = load i64, ptr @H5E_CANTRELEASE_g, align 8, !tbaa !11
  %105 = call i32 (ptr, ptr, i32, i64, i64, ptr, ...) @H5E_printf_stack(ptr noundef @.str, ptr noundef @__func__.H5ES__cancel_cb, i32 noundef 805, i64 noundef %103, i64 noundef %104, ptr noundef @.str.22)
  br label %106

106:                                              ; preds = %102
  br label %107

107:                                              ; preds = %106
  store i8 1, ptr %8, align 1, !tbaa !7
  %108 = load i8, ptr %8, align 1, !tbaa !7, !range !9, !noundef !10
  %109 = trunc i8 %108 to i1
  %110 = zext i1 %109 to i8
  store i8 %110, ptr %8, align 1, !tbaa !7
  br label %111

111:                                              ; preds = %107
  br label %112

112:                                              ; preds = %111
  br label %113

113:                                              ; preds = %112
  store i32 -1, ptr %7, align 4, !tbaa !3
  br label %162

114:                                              ; No predecessors!
  br label %115

115:                                              ; preds = %114
  br label %116

116:                                              ; preds = %115
  br label %117

117:                                              ; preds = %116
  br label %118

118:                                              ; preds = %117, %86
  br label %160

119:                                              ; preds = %83
  %120 = load i32, ptr %6, align 4, !tbaa !3
  %121 = icmp eq i32 %120, 3
  br i1 %121, label %125, label %122

122:                                              ; preds = %119
  %123 = load i32, ptr %6, align 4, !tbaa !3
  %124 = icmp eq i32 %123, 0
  br i1 %124, label %125, label %131

125:                                              ; preds = %122, %119
  %126 = load ptr, ptr %5, align 8, !tbaa !66
  %127 = getelementptr inbounds nuw %struct.H5ES_cancel_ctx_t, ptr %126, i32 0, i32 1
  %128 = load ptr, ptr %127, align 8, !tbaa !64
  %129 = load i64, ptr %128, align 8, !tbaa !11
  %130 = add i64 %129, 1
  store i64 %130, ptr %128, align 8, !tbaa !11
  br label %159

131:                                              ; preds = %122
  %132 = load ptr, ptr %5, align 8, !tbaa !66
  %133 = getelementptr inbounds nuw %struct.H5ES_cancel_ctx_t, ptr %132, i32 0, i32 0
  %134 = load ptr, ptr %133, align 8, !tbaa !62
  %135 = load ptr, ptr %3, align 8, !tbaa !27
  %136 = load i32, ptr %6, align 4, !tbaa !3
  %137 = call i32 @H5ES__op_complete(ptr noundef %134, ptr noundef %135, i32 noundef %136)
  %138 = icmp slt i32 %137, 0
  br i1 %138, label %139, label %158

139:                                              ; preds = %131
  br label %140

140:                                              ; preds = %139
  br label %141

141:                                              ; preds = %140
  br label %142

142:                                              ; preds = %141
  %143 = load i64, ptr @H5E_EVENTSET_g, align 8, !tbaa !11
  %144 = load i64, ptr @H5E_CANTRELEASE_g, align 8, !tbaa !11
  %145 = call i32 (ptr, ptr, i32, i64, i64, ptr, ...) @H5E_printf_stack(ptr noundef @.str, ptr noundef @__func__.H5ES__cancel_cb, i32 noundef 817, i64 noundef %143, i64 noundef %144, ptr noundef @.str.22)
  br label %146

146:                                              ; preds = %142
  br label %147

147:                                              ; preds = %146
  store i8 1, ptr %8, align 1, !tbaa !7
  %148 = load i8, ptr %8, align 1, !tbaa !7, !range !9, !noundef !10
  %149 = trunc i8 %148 to i1
  %150 = zext i1 %149 to i8
  store i8 %150, ptr %8, align 1, !tbaa !7
  br label %151

151:                                              ; preds = %147
  br label %152

152:                                              ; preds = %151
  br label %153

153:                                              ; preds = %152
  store i32 -1, ptr %7, align 4, !tbaa !3
  br label %162

154:                                              ; No predecessors!
  br label %155

155:                                              ; preds = %154
  br label %156

156:                                              ; preds = %155
  br label %157

157:                                              ; preds = %156
  br label %158

158:                                              ; preds = %157, %131
  br label %159

159:                                              ; preds = %158, %125
  br label %160

160:                                              ; preds = %159, %118
  br label %161

161:                                              ; preds = %160, %79
  br label %162

162:                                              ; preds = %161, %153, %113, %74, %44
  br label %163

163:                                              ; preds = %162, %16
  %164 = load i32, ptr %7, align 4, !tbaa !3
  call void @llvm.lifetime.end.p0(i64 1, ptr %8) #5
  call void @llvm.lifetime.end.p0(i64 4, ptr %7) #5
  call void @llvm.lifetime.end.p0(i64 4, ptr %6) #5
  call void @llvm.lifetime.end.p0(i64 8, ptr %5) #5
  ret i32 %164
}