; Function Attrs: nounwind uwtable
define internal range(i32 -1, 2) i32 @H5ES__cancel_cb(ptr noundef %0, ptr noundef readonly captures(none) %1) #0 {
  %3 = alloca i32, align 4
  call void @llvm.lifetime.start.p0(i64 4, ptr nonnull %3) #5
  store i32 1, ptr %3, align 4, !tbaa !20
  %4 = load i8, ptr @H5ES_init_g, align 1, !tbaa !3, !range !7, !noundef !8
  %5 = trunc nuw i8 %4 to i1
  %6 = load i8, ptr @H5_libterm_g, align 1, !range !7
  %7 = trunc nuw i8 %6 to i1
  %8 = xor i1 %7, true
  %9 = select i1 %5, i1 true, i1 %8
  br i1 %9, label %10, label %56, !prof !9

10:                                               ; preds = %2
  %11 = load ptr, ptr %0, align 8, !tbaa !41
  %12 = call i32 @H5VL_request_cancel(ptr noundef %11, ptr noundef nonnull %3) #5
  %13 = icmp slt i32 %12, 0
  br i1 %13, label %14, label %18

14:                                               ; preds = %10
  %15 = load i64, ptr @H5E_EVENTSET_g, align 8, !tbaa !10
  %16 = load i64, ptr @H5E_CANTCANCEL_g, align 8, !tbaa !10
  %17 = call i32 (ptr, ptr, i32, i64, i64, ptr, ...) @H5E_printf_stack(ptr noundef nonnull @.str, ptr noundef nonnull @__func__.H5ES__cancel_cb, i32 noundef 785, i64 noundef %15, i64 noundef %16, ptr noundef nonnull @.str.30) #5
  br label %56

18:                                               ; preds = %10
  %19 = load i32, ptr %3, align 4, !tbaa !20
  switch i32 %19, label %48 [
    i32 2, label %20
    i32 1, label %31
    i32 3, label %43
    i32 0, label %43
  ]

20:                                               ; preds = %18
  %21 = load ptr, ptr %1, align 8, !tbaa !50
  %22 = call fastcc i32 @H5ES__op_complete(ptr noundef %21, ptr noundef nonnull %0, i32 noundef 2)
  %23 = icmp slt i32 %22, 0
  br i1 %23, label %24, label %28

24:                                               ; preds = %20
  %25 = load i64, ptr @H5E_EVENTSET_g, align 8, !tbaa !10
  %26 = load i64, ptr @H5E_CANTSET_g, align 8, !tbaa !10
  %27 = call i32 (ptr, ptr, i32, i64, i64, ptr, ...) @H5E_printf_stack(ptr noundef nonnull @.str, ptr noundef nonnull @__func__.H5ES__cancel_cb, i32 noundef 791, i64 noundef %25, i64 noundef %26, ptr noundef nonnull @.str.27) #5
  br label %56

28:                                               ; preds = %20
  %29 = getelementptr inbounds nuw i8, ptr %1, i64 16
  %30 = load ptr, ptr %29, align 8, !tbaa !53
  store i8 1, ptr %30, align 1, !tbaa !3
  br label %56

31:                                               ; preds = %18
  %32 = getelementptr inbounds nuw i8, ptr %1, i64 8
  %33 = load ptr, ptr %32, align 8, !tbaa !52
  %34 = load i64, ptr %33, align 8, !tbaa !10
  %35 = add i64 %34, 1
  store i64 %35, ptr %33, align 8, !tbaa !10
  %36 = load ptr, ptr %1, align 8, !tbaa !50
  %37 = call fastcc i32 @H5ES__op_complete(ptr noundef %36, ptr noundef nonnull %0, i32 noundef 1)
  %38 = icmp slt i32 %37, 0
  br i1 %38, label %39, label %56

39:                                               ; preds = %31
  %40 = load i64, ptr @H5E_EVENTSET_g, align 8, !tbaa !10
  %41 = load i64, ptr @H5E_CANTRELEASE_g, align 8, !tbaa !10
  %42 = call i32 (ptr, ptr, i32, i64, i64, ptr, ...) @H5E_printf_stack(ptr noundef nonnull @.str, ptr noundef nonnull @__func__.H5ES__cancel_cb, i32 noundef 805, i64 noundef %40, i64 noundef %41, ptr noundef nonnull @.str.22) #5
  br label %56

43:                                               ; preds = %18, %18
  %44 = getelementptr inbounds nuw i8, ptr %1, i64 8
  %45 = load ptr, ptr %44, align 8, !tbaa !52
  %46 = load i64, ptr %45, align 8, !tbaa !10
  %47 = add i64 %46, 1
  store i64 %47, ptr %45, align 8, !tbaa !10
  br label %56

48:                                               ; preds = %18
  %49 = load ptr, ptr %1, align 8, !tbaa !50
  %50 = call fastcc i32 @H5ES__op_complete(ptr noundef %49, ptr noundef nonnull %0, i32 noundef %19)
  %51 = icmp slt i32 %50, 0
  br i1 %51, label %52, label %56

52:                                               ; preds = %48
  %53 = load i64, ptr @H5E_EVENTSET_g, align 8, !tbaa !10
  %54 = load i64, ptr @H5E_CANTRELEASE_g, align 8, !tbaa !10
  %55 = call i32 (ptr, ptr, i32, i64, i64, ptr, ...) @H5E_printf_stack(ptr noundef nonnull @.str, ptr noundef nonnull @__func__.H5ES__cancel_cb, i32 noundef 817, i64 noundef %53, i64 noundef %54, ptr noundef nonnull @.str.22) #5
  br label %56

56:                                               ; preds = %14, %24, %39, %52, %31, %48, %43, %28, %2
  %.0 = phi i32 [ -1, %14 ], [ -1, %24 ], [ 1, %28 ], [ -1, %39 ], [ 0, %31 ], [ 0, %43 ], [ -1, %52 ], [ 0, %48 ], [ 0, %2 ]
  call void @llvm.lifetime.end.p0(i64 4, ptr nonnull %3) #5
  ret i32 %.0
}